; Function Attrs: mustprogress uwtable
define hidden void @_ZN4cvc58internal3smt15FindSynthSolverC2ERNS0_3EnvE(ptr noundef nonnull align 8 dereferenceable(108) %this, ptr noundef nonnull align 8 dereferenceable(576) %env) unnamed_addr #3 align 2 {
entry:
  tail call void @_ZN4cvc58internal6EnvObjC2ERNS0_3EnvE(ptr noundef nonnull align 8 dereferenceable(16) %this, ptr noundef nonnull align 8 dereferenceable(576) %env)
  store ptr getelementptr inbounds ({ [4 x ptr] }, ptr @_ZTVN4cvc58internal3smt15FindSynthSolverE, i64 0, i32 0, i64 2), ptr %this, align 8
  %d_sfinders = getelementptr inbounds i8, ptr %this, i64 16
  tail call void @llvm.memset.p0.i64(ptr noundef nonnull align 8 dereferenceable(24) %d_sfinders, i8 0, i64 24, i1 false)
  %d_finished = getelementptr inbounds i8, ptr %this, i64 40
  %_M_single_bucket.i.i = getelementptr inbounds i8, ptr %this, i64 88
  store ptr %_M_single_bucket.i.i, ptr %d_finished, align 8
  %_M_bucket_count.i.i = getelementptr inbounds i8, ptr %this, i64 48
  store i64 1, ptr %_M_bucket_count.i.i, align 8
  %_M_before_begin.i.i = getelementptr inbounds i8, ptr %this, i64 56
  %_M_rehash_policy.i.i = getelementptr inbounds i8, ptr %this, i64 72
  tail call void @llvm.memset.p0.i64(ptr noundef nonnull align 8 dereferenceable(16) %_M_before_begin.i.i, i8 0, i64 16, i1 false)
  store float 1.000000e+00, ptr %_M_rehash_policy.i.i, align 8
  %_M_next_resize.i.i.i = getelementptr inbounds i8, ptr %this, i64 80
  tail call void @llvm.memset.p0.i64(ptr noundef nonnull align 8 dereferenceable(16) %_M_next_resize.i.i.i, i8 0, i64 16, i1 false)
  ret void
}